target datalayout = "e-m:e-p270:32:32-p271:32:32-p272:64:64-i64:64-i128:128-f80:128-n8:16:32:64-S128"
target triple = "x86_64-pc-linux-gnu"

@.str = private unnamed_addr constant [11 x i8] c"VK_SUCCESS\00", align 1
@.str.1 = private unnamed_addr constant [13 x i8] c"VK_NOT_READY\00", align 1
@.str.2 = private unnamed_addr constant [11 x i8] c"VK_TIMEOUT\00", align 1
@.str.3 = private unnamed_addr constant [13 x i8] c"VK_EVENT_SET\00", align 1
@.str.4 = private unnamed_addr constant [15 x i8] c"VK_EVENT_RESET\00", align 1
@.str.5 = private unnamed_addr constant [14 x i8] c"VK_INCOMPLETE\00", align 1
@.str.6 = private unnamed_addr constant [28 x i8] c"VK_ERROR_OUT_OF_HOST_MEMORY\00", align 1
@.str.7 = private unnamed_addr constant [30 x i8] c"VK_ERROR_OUT_OF_DEVICE_MEMORY\00", align 1
@.str.8 = private unnamed_addr constant [31 x i8] c"VK_ERROR_INITIALIZATION_FAILED\00", align 1
@.str.9 = private unnamed_addr constant [21 x i8] c"VK_ERROR_DEVICE_LOST\00", align 1
@.str.10 = private unnamed_addr constant [27 x i8] c"VK_ERROR_MEMORY_MAP_FAILED\00", align 1
@.str.11 = private unnamed_addr constant [27 x i8] c"VK_ERROR_LAYER_NOT_PRESENT\00", align 1
@.str.12 = private unnamed_addr constant [31 x i8] c"VK_ERROR_EXTENSION_NOT_PRESENT\00", align 1
@.str.13 = private unnamed_addr constant [29 x i8] c"VK_ERROR_FEATURE_NOT_PRESENT\00", align 1
@.str.14 = private unnamed_addr constant [29 x i8] c"VK_ERROR_INCOMPATIBLE_DRIVER\00", align 1
@.str.15 = private unnamed_addr constant [26 x i8] c"VK_ERROR_TOO_MANY_OBJECTS\00", align 1
@.str.16 = private unnamed_addr constant [30 x i8] c"VK_ERROR_FORMAT_NOT_SUPPORTED\00", align 1
@.str.17 = private unnamed_addr constant [25 x i8] c"VK_ERROR_FRAGMENTED_POOL\00", align 1
@.str.18 = private unnamed_addr constant [17 x i8] c"VK_ERROR_UNKNOWN\00", align 1
@.str.19 = private unnamed_addr constant [28 x i8] c"VK_ERROR_OUT_OF_POOL_MEMORY\00", align 1
@.str.20 = private unnamed_addr constant [33 x i8] c"VK_ERROR_INVALID_EXTERNAL_HANDLE\00", align 1
@.str.21 = private unnamed_addr constant [23 x i8] c"VK_ERROR_FRAGMENTATION\00", align 1
@.str.22 = private unnamed_addr constant [40 x i8] c"VK_ERROR_INVALID_OPAQUE_CAPTURE_ADDRESS\00", align 1
@.str.23 = private unnamed_addr constant [26 x i8] c"VK_ERROR_SURFACE_LOST_KHR\00", align 1
@.str.24 = private unnamed_addr constant [34 x i8] c"VK_ERROR_NATIVE_WINDOW_IN_USE_KHR\00", align 1
@.str.25 = private unnamed_addr constant [18 x i8] c"VK_SUBOPTIMAL_KHR\00", align 1
@.str.26 = private unnamed_addr constant [25 x i8] c"VK_ERROR_OUT_OF_DATE_KHR\00", align 1
@.str.27 = private unnamed_addr constant [34 x i8] c"VK_ERROR_INCOMPATIBLE_DISPLAY_KHR\00", align 1
@.str.28 = private unnamed_addr constant [31 x i8] c"VK_ERROR_VALIDATION_FAILED_EXT\00", align 1
@.str.29 = private unnamed_addr constant [27 x i8] c"VK_ERROR_INVALID_SHADER_NV\00", align 1
@.str.30 = private unnamed_addr constant [54 x i8] c"VK_ERROR_INVALID_DRM_FORMAT_MODIFIER_PLANE_LAYOUT_EXT\00", align 1
@.str.31 = private unnamed_addr constant [27 x i8] c"VK_ERROR_NOT_PERMITTED_EXT\00", align 1
@.str.32 = private unnamed_addr constant [45 x i8] c"VK_ERROR_FULL_SCREEN_EXCLUSIVE_MODE_LOST_EXT\00", align 1
@.str.33 = private unnamed_addr constant [19 x i8] c"VK_THREAD_IDLE_KHR\00", align 1
@.str.34 = private unnamed_addr constant [19 x i8] c"VK_THREAD_DONE_KHR\00", align 1
@.str.35 = private unnamed_addr constant [26 x i8] c"VK_OPERATION_DEFERRED_KHR\00", align 1
@.str.36 = private unnamed_addr constant [30 x i8] c"VK_OPERATION_NOT_DEFERRED_KHR\00", align 1
@.str.37 = private unnamed_addr constant [33 x i8] c"VK_PIPELINE_COMPILE_REQUIRED_EXT\00", align 1
@.str.38 = private unnamed_addr constant [19 x i8] c"VK_ERROR_<Unknown>\00", align 1
@.str.39 = private unnamed_addr constant [13 x i8] c"VK_<Unknown>\00", align 1

; Function Attrs: nounwind uwtable
define hidden ptr @SDL_Vulkan_GetResultString(i32 noundef %0) #0 {
  %2 = alloca ptr, align 8
  %3 = alloca i32, align 4
  store i32 %0, ptr %3, align 4
  %4 = load i32, ptr %3, align 4
  switch i32 %4, label %43 [
    i32 0, label %5
    i32 1, label %6
    i32 2, label %7
    i32 3, label %8
    i32 4, label %9
    i32 5, label %10
    i32 -1, label %11
    i32 -2, label %12
    i32 -3, label %13
    i32 -4, label %14
    i32 -5, label %15
    i32 -6, label %16
    i32 -7, label %17
    i32 -8, label %18
    i32 -9, label %19
    i32 -10, label %20
    i32 -11, label %21
    i32 -12, label %22
    i32 -13, label %23
    i32 -1000069000, label %24
    i32 -1000072003, label %25
    i32 -1000161000, label %26
    i32 -1000257000, label %27
    i32 -1000000000, label %28
    i32 -1000000001, label %29
    i32 1000001003, label %30
    i32 -1000001004, label %31
    i32 -1000003001, label %32
    i32 -1000011001, label %33
    i32 -1000012000, label %34
    i32 -1000158000, label %35
    i32 -1000174001, label %36
    i32 -1000255000, label %37
    i32 1000268000, label %38
    i32 1000268001, label %39
    i32 1000268002, label %40
    i32 1000268003, label %41
    i32 1000297000, label %42
  ]

5:                                                ; preds = %1
  store ptr @.str, ptr %2, align 8
  br label %49

6:                                                ; preds = %1
  store ptr @.str.1, ptr %2, align 8
  br label %49

7:                                                ; preds = %1
  store ptr @.str.2, ptr %2, align 8
  br label %49

8:                                                ; preds = %1
  store ptr @.str.3, ptr %2, align 8
  br label %49

9:                                                ; preds = %1
  store ptr @.str.4, ptr %2, align 8
  br label %49

10:                                               ; preds = %1
  store ptr @.str.5, ptr %2, align 8
  br label %49

11:                                               ; preds = %1
  store ptr @.str.6, ptr %2, align 8
  br label %49

12:                                               ; preds = %1
  store ptr @.str.7, ptr %2, align 8
  br label %49

13:                                               ; preds = %1
  store ptr @.str.8, ptr %2, align 8
  br label %49

14:                                               ; preds = %1
  store ptr @.str.9, ptr %2, align 8
  br label %49

15:                                               ; preds = %1
  store ptr @.str.10, ptr %2, align 8
  br label %49

16:                                               ; preds = %1
  store ptr @.str.11, ptr %2, align 8
  br label %49

17:                                               ; preds = %1
  store ptr @.str.12, ptr %2, align 8
  br label %49

18:                                               ; preds = %1
  store ptr @.str.13, ptr %2, align 8
  br label %49

19:                                               ; preds = %1
  store ptr @.str.14, ptr %2, align 8
  br label %49

20:                                               ; preds = %1
  store ptr @.str.15, ptr %2, align 8
  br label %49

21:                                               ; preds = %1
  store ptr @.str.16, ptr %2, align 8
  br label %49

22:                                               ; preds = %1
  store ptr @.str.17, ptr %2, align 8
  br label %49

23:                                               ; preds = %1
  store ptr @.str.18, ptr %2, align 8
  br label %49

24:                                               ; preds = %1
  store ptr @.str.19, ptr %2, align 8
  br label %49

25:                                               ; preds = %1
  store ptr @.str.20, ptr %2, align 8
  br label %49

26:                                               ; preds = %1
  store ptr @.str.21, ptr %2, align 8
  br label %49

27:                                               ; preds = %1
  store ptr @.str.22, ptr %2, align 8
  br label %49

28:                                               ; preds = %1
  store ptr @.str.23, ptr %2, align 8
  br label %49

29:                                               ; preds = %1
  store ptr @.str.24, ptr %2, align 8
  br label %49

30:                                               ; preds = %1
  store ptr @.str.25, ptr %2, align 8
  br label %49

31:                                               ; preds = %1
  store ptr @.str.26, ptr %2, align 8
  br label %49

32:                                               ; preds = %1
  store ptr @.str.27, ptr %2, align 8
  br label %49

33:                                               ; preds = %1
  store ptr @.str.28, ptr %2, align 8
  br label %49

34:                                               ; preds = %1
  store ptr @.str.29, ptr %2, align 8
  br label %49

35:                                               ; preds = %1
  store ptr @.str.30, ptr %2, align 8
  br label %49

36:                                               ; preds = %1
  store ptr @.str.31, ptr %2, align 8
  br label %49

37:                                               ; preds = %1
  store ptr @.str.32, ptr %2, align 8
  br label %49

38:                                               ; preds = %1
  store ptr @.str.33, ptr %2, align 8
  br label %49

39:                                               ; preds = %1
  store ptr @.str.34, ptr %2, align 8
  br label %49

40:                                               ; preds = %1
  store ptr @.str.35, ptr %2, align 8
  br label %49

41:                                               ; preds = %1
  store ptr @.str.36, ptr %2, align 8
  br label %49

42:                                               ; preds = %1
  store ptr @.str.37, ptr %2, align 8
  br label %49

43:                                               ; preds = %1
  br label %44

44:                                               ; preds = %43
  %45 = load i32, ptr %3, align 4
  %46 = icmp slt i32 %45, 0
  br i1 %46, label %47, label %48

47:                                               ; preds = %44
  store ptr @.str.38, ptr %2, align 8
  br label %49

48:                                               ; preds = %44
  store ptr @.str.39, ptr %2, align 8
  br label %49

49:                                               ; preds = %48, %47, %42, %41, %40, %39, %38, %37, %36, %35, %34, %33, %32, %31, %30, %29, %28, %27, %26, %25, %24, %23, %22, %21, %20, %19, %18, %17, %16, %15, %14, %13, %12, %11, %10, %9, %8, %7, %6, %5
  %50 = load ptr, ptr %2, align 8
  ret ptr %50
}