; Function Attrs: mustprogress nofree norecurse nosync nounwind willreturn memory(none) uwtable
define hidden noundef nonnull ptr @SDL_Vulkan_GetResultString(i32 noundef %0) local_unnamed_addr #0 {
  switch i32 %0, label %39 [
    i32 0, label %41
    i32 1, label %2
    i32 2, label %3
    i32 3, label %4
    i32 4, label %5
    i32 5, label %6
    i32 -1, label %7
    i32 -2, label %8
    i32 -3, label %9
    i32 -4, label %10
    i32 -5, label %11
    i32 -6, label %12
    i32 -7, label %13
    i32 -8, label %14
    i32 -9, label %15
    i32 -10, label %16
    i32 -11, label %17
    i32 -12, label %18
    i32 -13, label %19
    i32 -1000069000, label %20
    i32 -1000072003, label %21
    i32 -1000161000, label %22
    i32 -1000257000, label %23
    i32 -1000000000, label %24
    i32 -1000000001, label %25
    i32 1000001003, label %26
    i32 -1000001004, label %27
    i32 -1000003001, label %28
    i32 -1000011001, label %29
    i32 -1000012000, label %30
    i32 -1000158000, label %31
    i32 -1000174001, label %32
    i32 -1000255000, label %33
    i32 1000268000, label %34
    i32 1000268001, label %35
    i32 1000268002, label %36
    i32 1000268003, label %37
    i32 1000297000, label %38
  ]

2:                                                ; preds = %1
  br label %41

3:                                                ; preds = %1
  br label %41

4:                                                ; preds = %1
  br label %41

5:                                                ; preds = %1
  br label %41

6:                                                ; preds = %1
  br label %41

7:                                                ; preds = %1
  br label %41

8:                                                ; preds = %1
  br label %41

9:                                                ; preds = %1
  br label %41

10:                                               ; preds = %1
  br label %41

11:                                               ; preds = %1
  br label %41

12:                                               ; preds = %1
  br label %41

13:                                               ; preds = %1
  br label %41

14:                                               ; preds = %1
  br label %41

15:                                               ; preds = %1
  br label %41

16:                                               ; preds = %1
  br label %41

17:                                               ; preds = %1
  br label %41

18:                                               ; preds = %1
  br label %41

19:                                               ; preds = %1
  br label %41

20:                                               ; preds = %1
  br label %41

21:                                               ; preds = %1
  br label %41

22:                                               ; preds = %1
  br label %41

23:                                               ; preds = %1
  br label %41

24:                                               ; preds = %1
  br label %41

25:                                               ; preds = %1
  br label %41

26:                                               ; preds = %1
  br label %41

27:                                               ; preds = %1
  br label %41

28:                                               ; preds = %1
  br label %41

29:                                               ; preds = %1
  br label %41

30:                                               ; preds = %1
  br label %41

31:                                               ; preds = %1
  br label %41

32:                                               ; preds = %1
  br label %41

33:                                               ; preds = %1
  br label %41

34:                                               ; preds = %1
  br label %41

35:                                               ; preds = %1
  br label %41

36:                                               ; preds = %1
  br label %41

37:                                               ; preds = %1
  br label %41

38:                                               ; preds = %1
  br label %41

39:                                               ; preds = %1
  %40 = icmp slt i32 %0, 0
  %.str.38..str.39 = select i1 %40, ptr @.str.38, ptr @.str.39
  br label %41

41:                                               ; preds = %39, %1, %38, %37, %36, %35, %34, %33, %32, %31, %30, %29, %28, %27, %26, %25, %24, %23, %22, %21, %20, %19, %18, %17, %16, %15, %14, %13, %12, %11, %10, %9, %8, %7, %6, %5, %4, %3, %2
  %.0 = phi ptr [ @.str.37, %38 ], [ @.str.36, %37 ], [ @.str.35, %36 ], [ @.str.34, %35 ], [ @.str.33, %34 ], [ @.str.32, %33 ], [ @.str.31, %32 ], [ @.str.30, %31 ], [ @.str.29, %30 ], [ @.str.28, %29 ], [ @.str.27, %28 ], [ @.str.26, %27 ], [ @.str.25, %26 ], [ @.str.24, %25 ], [ @.str.23, %24 ], [ @.str.22, %23 ], [ @.str.21, %22 ], [ @.str.20, %21 ], [ @.str.19, %20 ], [ @.str.18, %19 ], [ @.str.17, %18 ], [ @.str.16, %17 ], [ @.str.15, %16 ], [ @.str.14, %15 ], [ @.str.13, %14 ], [ @.str.12, %13 ], [ @.str.11, %12 ], [ @.str.10, %11 ], [ @.str.9, %10 ], [ @.str.8, %9 ], [ @.str.7, %8 ], [ @.str.6, %7 ], [ @.str.5, %6 ], [ @.str.4, %5 ], [ @.str.3, %4 ], [ @.str.2, %3 ], [ @.str.1, %2 ], [ @.str, %1 ], [ %.str.38..str.39, %39 ]
  ret ptr %.0
}